; Function Attrs: mustprogress uwtable
define void @_ZN3zmq6xsub_tC2EPNS_5ctx_tEji(ptr noundef nonnull align 8 dereferenceable(2028) %this, ptr noundef %parent_, i32 noundef %tid_, i32 noundef %sid_) unnamed_addr #0 align 2 personality ptr @__gxx_personality_v0 {
entry:
  tail call void @_ZN3zmq13socket_base_tC2EPNS_5ctx_tEjib(ptr noundef nonnull align 8 dereferenceable(1825) %this, ptr noundef %parent_, i32 noundef %tid_, i32 noundef %sid_, i1 noundef zeroext false)
  store ptr getelementptr inbounds ({ [47 x ptr], [4 x ptr], [7 x ptr], [8 x ptr] }, ptr @_ZTVN3zmq6xsub_tE, i64 0, i32 0, i64 2), ptr %this, align 8
  %add.ptr = getelementptr inbounds i8, ptr %this, i64 1448
  store ptr getelementptr inbounds ({ [47 x ptr], [4 x ptr], [7 x ptr], [8 x ptr] }, ptr @_ZTVN3zmq6xsub_tE, i64 0, i32 1, i64 2), ptr %add.ptr, align 8
  %add.ptr2 = getelementptr inbounds i8, ptr %this, i64 1464
  store ptr getelementptr inbounds ({ [47 x ptr], [4 x ptr], [7 x ptr], [8 x ptr] }, ptr @_ZTVN3zmq6xsub_tE, i64 0, i32 2, i64 2), ptr %add.ptr2, align 8
  %add.ptr3 = getelementptr inbounds i8, ptr %this, i64 1472
  store ptr getelementptr inbounds ({ [47 x ptr], [4 x ptr], [7 x ptr], [8 x ptr] }, ptr @_ZTVN3zmq6xsub_tE, i64 0, i32 3, i64 2), ptr %add.ptr3, align 8
  %_fq = getelementptr inbounds i8, ptr %this, i64 1832
  invoke void @_ZN3zmq4fq_tC1Ev(ptr noundef nonnull align 8 dereferenceable(41) %_fq)
          to label %invoke.cont unwind label %lpad

invoke.cont:                                      ; preds = %entry
  %_dist = getelementptr inbounds i8, ptr %this, i64 1880
  invoke void @_ZN3zmq6dist_tC1Ev(ptr noundef nonnull align 8 dereferenceable(49) %_dist)
          to label %invoke.cont5 unwind label %lpad4

invoke.cont5:                                     ; preds = %invoke.cont
  %_subscriptions = getelementptr inbounds i8, ptr %this, i64 1936
  invoke void @_ZN3zmq12radix_tree_tC1Ev(ptr noundef nonnull align 8 dereferenceable(16) %_subscriptions)
          to label %invoke.cont7 unwind label %lpad6

invoke.cont7:                                     ; preds = %invoke.cont5
  %_verbose_unsubs = getelementptr inbounds i8, ptr %this, i64 1952
  store i8 0, ptr %_verbose_unsubs, align 8
  %_has_message = getelementptr inbounds i8, ptr %this, i64 1953
  store i8 0, ptr %_has_message, align 1
  %_more_send = getelementptr inbounds i8, ptr %this, i64 2024
  %type = getelementptr inbounds i8, ptr %this, i64 332
  store i32 0, ptr %_more_send, align 8
  store i8 10, ptr %type, align 4
  %linger = getelementptr inbounds i8, ptr %this, i64 336
  store atomic i32 0, ptr %linger release, align 8
  %_message9 = getelementptr inbounds i8, ptr %this, i64 1960
  %call = invoke noundef i32 @_ZN3zmq5msg_t4initEv(ptr noundef nonnull align 8 dereferenceable(64) %_message9)
          to label %invoke.cont11 unwind label %lpad10

invoke.cont11:                                    ; preds = %invoke.cont7
  %cmp.not = icmp eq i32 %call, 0
  br i1 %cmp.not, label %do.end, label %if.then

if.then:                                          ; preds = %invoke.cont11
  %call12 = tail call ptr @__errno_location() #12
  %0 = load i32, ptr %call12, align 4
  %call13 = tail call ptr @strerror(i32 noundef %0) #13
  %1 = load ptr, ptr @stderr, align 8
  %call15 = tail call i32 (ptr, ptr, ...) @fprintf(ptr noundef %1, ptr noundef nonnull @.str, ptr noundef %call13, ptr noundef nonnull @.str.1, i32 noundef 26) #14
  %2 = load ptr, ptr @stderr, align 8
  %call17 = tail call i32 @fflush(ptr noundef %2)
  invoke void @_ZN3zmq9zmq_abortEPKc(ptr noundef %call13)
          to label %do.end unwind label %lpad10

lpad:                                             ; preds = %entry
  %3 = landingpad { ptr, i32 }
          cleanup
  br label %ehcleanup20

lpad4:                                            ; preds = %invoke.cont
  %4 = landingpad { ptr, i32 }
          cleanup
  br label %ehcleanup19

lpad6:                                            ; preds = %invoke.cont5
  %5 = landingpad { ptr, i32 }
          cleanup
  br label %ehcleanup

lpad10:                                           ; preds = %if.then, %invoke.cont7
  %6 = landingpad { ptr, i32 }
          cleanup
  tail call void @_ZN3zmq12radix_tree_tD1Ev(ptr noundef nonnull align 8 dereferenceable(16) %_subscriptions) #13
  br label %ehcleanup

do.end:                                           ; preds = %if.then, %invoke.cont11
  ret void

ehcleanup:                                        ; preds = %lpad10, %lpad6
  %.pn = phi { ptr, i32 } [ %6, %lpad10 ], [ %5, %lpad6 ]
  tail call void @_ZN3zmq6dist_tD1Ev(ptr noundef nonnull align 8 dereferenceable(49) %_dist) #13
  br label %ehcleanup19

ehcleanup19:                                      ; preds = %ehcleanup, %lpad4
  %.pn.pn = phi { ptr, i32 } [ %.pn, %ehcleanup ], [ %4, %lpad4 ]
  tail call void @_ZN3zmq4fq_tD1Ev(ptr noundef nonnull align 8 dereferenceable(41) %_fq) #13
  br label %ehcleanup20

ehcleanup20:                                      ; preds = %ehcleanup19, %lpad
  %.pn.pn.pn = phi { ptr, i32 } [ %.pn.pn, %ehcleanup19 ], [ %3, %lpad ]
  tail call void @_ZN3zmq13socket_base_tD2Ev(ptr noundef nonnull align 8 dereferenceable(1825) %this) #13
  resume { ptr, i32 } %.pn.pn.pn
}